target datalayout = "e-m:e-p270:32:32-p271:32:32-p272:64:64-i64:64-i128:128-f80:128-n8:16:32:64-S128"
target triple = "x86_64-unknown-linux-gnu"

%struct.ESPState = type { %struct.DeviceState, [16 x i8], [16 x i8], ptr, ptr, i8, i8, i32, i32, i32, %struct.Fifo8, %struct.SCSIBus, ptr, ptr, %struct.Fifo8, i8, i8, i32, i8, i8, i32, i32, ptr, ptr, ptr, ptr, ptr, i8, i8, i32, i32, i8, i32, i32, [16 x i8], [32 x i8], i32 }
%struct.DeviceState = type { %struct.Object, ptr, ptr, i8, i8, i64, ptr, i32, i8, ptr, %struct.NamedGPIOListHead, %struct.NamedClockListHead, %struct.BusStateHead, i32, i32, i32, %struct.ResettableState, ptr, %struct.MemReentrancyGuard }
%struct.Object = type { ptr, ptr, ptr, i32, ptr }
%struct.NamedGPIOListHead = type { ptr }
%struct.NamedClockListHead = type { ptr }
%struct.BusStateHead = type { ptr }
%struct.ResettableState = type { i32, i8, i8 }
%struct.MemReentrancyGuard = type { i8 }
%struct.SCSIBus = type { %struct.BusState, i32, %struct.SCSISense, ptr, i32 }
%struct.BusState = type { %struct.Object, ptr, ptr, ptr, i32, i8, i8, i32, %union.BusChildHead, %struct.BusStateEntry, %struct.ResettableState }
%union.BusChildHead = type { %struct.QTailQLink }
%struct.QTailQLink = type { ptr, ptr }
%struct.BusStateEntry = type { ptr, ptr }
%struct.SCSISense = type { i8, i8, i8 }
%struct.Fifo8 = type { ptr, i32, i32, i32 }
%struct.SCSIRequest = type { ptr, ptr, ptr, i32, i32, i32, i16, i16, ptr, i64, %struct.SCSICommand, %struct.NotifierList, [252 x i8], i32, i8, i8, i8, i8, ptr, ptr, %union.anon }
%struct.SCSICommand = type { [16 x i8], i32, i64, i64, i32 }
%struct.NotifierList = type { %struct.anon }
%struct.anon = type { ptr }
%union.anon = type { %struct.QTailQLink }

; Function Attrs: nounwind sspstrong uwtable
define dso_local void @esp_request_cancelled(ptr noundef %req) #0 {
entry:
  %req.addr = alloca ptr, align 8
  %s = alloca ptr, align 8
  store ptr %req, ptr %req.addr, align 8
  %0 = load ptr, ptr %req.addr, align 8
  %hba_private = getelementptr inbounds %struct.SCSIRequest, ptr %0, i32 0, i32 8
  %1 = load ptr, ptr %hba_private, align 8
  store ptr %1, ptr %s, align 8
  %2 = load ptr, ptr %req.addr, align 8
  %3 = load ptr, ptr %s, align 8
  %current_req = getelementptr inbounds %struct.ESPState, ptr %3, i32 0, i32 13
  %4 = load ptr, ptr %current_req, align 8
  %cmp = icmp eq ptr %2, %4
  br i1 %cmp, label %if.then, label %if.end

if.then:                                          ; preds = %entry
  %5 = load ptr, ptr %s, align 8
  %current_req1 = getelementptr inbounds %struct.ESPState, ptr %5, i32 0, i32 13
  %6 = load ptr, ptr %current_req1, align 8
  call void @scsi_req_unref(ptr noundef %6)
  %7 = load ptr, ptr %s, align 8
  %current_req2 = getelementptr inbounds %struct.ESPState, ptr %7, i32 0, i32 13
  store ptr null, ptr %current_req2, align 8
  %8 = load ptr, ptr %s, align 8
  %current_dev = getelementptr inbounds %struct.ESPState, ptr %8, i32 0, i32 12
  store ptr null, ptr %current_dev, align 8
  %9 = load ptr, ptr %s, align 8
  %async_len = getelementptr inbounds %struct.ESPState, ptr %9, i32 0, i32 21
  store i32 0, ptr %async_len, align 8
  br label %if.end

if.end:                                           ; preds = %if.then, %entry
  ret void
}