; Function Attrs: nounwind sspstrong uwtable
define dso_local void @esp_request_cancelled(ptr noundef readonly %req) #0 {
entry:
  %hba_private = getelementptr inbounds nuw i8, ptr %req, i64 40
  %0 = load ptr, ptr %hba_private, align 8
  %current_req = getelementptr inbounds nuw i8, ptr %0, i64 400
  %1 = load ptr, ptr %current_req, align 8
  %cmp = icmp eq ptr %req, %1
  br i1 %cmp, label %if.then, label %if.end

if.then:                                          ; preds = %entry
  tail call void @scsi_req_unref(ptr noundef %1) #10
  %current_dev = getelementptr inbounds nuw i8, ptr %0, i64 392
  %async_len = getelementptr inbounds nuw i8, ptr %0, i64 448
  store i32 0, ptr %async_len, align 8
  tail call void @llvm.memset.p0.i64(ptr noundef nonnull align 8 dereferenceable(16) %current_dev, i8 0, i64 16, i1 false)
  br label %if.end

if.end:                                           ; preds = %if.then, %entry
  ret void
}